target datalayout = "e-m:e-p270:32:32-p271:32:32-p272:64:64-i64:64-i128:128-f80:128-n8:16:32:64-S128"
target triple = "x86_64-pc-linux-gnu"

%union.jvalue = type { i64 }
%class.JVMFlag = type { ptr, ptr, i32, i32 }

@.str.15 = private unnamed_addr constant [21 x i8] c"flag name is missing\00", align 1
@.str.16 = private unnamed_addr constant [22 x i8] c"flag value is missing\00", align 1
@.str.17 = private unnamed_addr constant [34 x i8] c"only 'writeable' flags can be set\00", align 1
@.str.18 = private unnamed_addr constant [23 x i8] c"flag %s does not exist\00", align 1

; Function Attrs: mustprogress nounwind uwtable
define linkonce_odr hidden noundef zeroext i1 @_ZNK7JVMFlag13is_manageableEv(ptr noundef nonnull align 8 dereferenceable(24) %0) #1 comdat align 2 {
  %2 = alloca ptr, align 8
  store ptr %0, ptr %2, align 8
  %3 = load ptr, ptr %2, align 8
  %4 = getelementptr inbounds %class.JVMFlag, ptr %3, i32 0, i32 2
  %5 = load i32, ptr %4, align 8
  %6 = and i32 %5, 32
  %7 = icmp ne i32 %6, 0
  ret i1 %7
}

; Function Attrs: mustprogress nounwind uwtable
define linkonce_odr hidden noundef zeroext i1 @_ZNK7JVMFlag12is_writeableEv(ptr noundef nonnull align 8 dereferenceable(24) %0) #1 comdat align 2 {
  %2 = alloca ptr, align 8
  store ptr %0, ptr %2, align 8
  %3 = load ptr, ptr %2, align 8
  %4 = call noundef zeroext i1 @_ZNK7JVMFlag13is_manageableEv(ptr noundef nonnull align 8 dereferenceable(24) %3)
  ret i1 %4
}

; Function Attrs: mustprogress nounwind uwtable
define linkonce_odr hidden noundef ptr @_ZN7JVMFlag9find_flagEPKc(ptr noundef %0) #1 comdat align 2 {
  %2 = alloca ptr, align 8
  store ptr %0, ptr %2, align 8
  %3 = load ptr, ptr %2, align 8
  %4 = load ptr, ptr %2, align 8
  %5 = call i64 @strlen(ptr noundef %4) #10
  %6 = call noundef ptr @_ZN7JVMFlag9find_flagEPKcmbb(ptr noundef %3, i64 noundef %5, i1 noundef zeroext false, i1 noundef zeroext false)
  ret ptr %6
}

; Function Attrs: mustprogress nounwind uwtable
define hidden noundef i32 @_ZN14WriteableFlags8set_flagEPKcPKvPFN7JVMFlag5ErrorEPS4_S3_13JVMFlagOriginR12FormatBufferILm80EEES7_SA_(ptr noundef %0, ptr noundef %1, ptr noundef %2, i32 noundef %3, ptr noundef nonnull align 8 dereferenceable(88) %4) #1 align 2 {
  %6 = alloca i32, align 4
  %7 = alloca ptr, align 8
  %8 = alloca ptr, align 8
  %9 = alloca ptr, align 8
  %10 = alloca i32, align 4
  %11 = alloca ptr, align 8
  %12 = alloca ptr, align 8
  store ptr %0, ptr %7, align 8
  store ptr %1, ptr %8, align 8
  store ptr %2, ptr %9, align 8
  store i32 %3, ptr %10, align 4
  store ptr %4, ptr %11, align 8
  %13 = load ptr, ptr %7, align 8
  %14 = icmp eq ptr %13, null
  br i1 %14, label %15, label %17

15:                                               ; preds = %5
  %16 = load ptr, ptr %11, align 8
  call void (ptr, ptr, ...) @_ZN12FormatBufferILm80EE5printEPKcz(ptr noundef nonnull align 8 dereferenceable(88) %16, ptr noundef @.str.15)
  store i32 1, ptr %6, align 4
  br label %42

17:                                               ; preds = %5
  %18 = load ptr, ptr %8, align 8
  %19 = icmp eq ptr %18, null
  br i1 %19, label %20, label %22

20:                                               ; preds = %17
  %21 = load ptr, ptr %11, align 8
  call void (ptr, ptr, ...) @_ZN12FormatBufferILm80EE5printEPKcz(ptr noundef nonnull align 8 dereferenceable(88) %21, ptr noundef @.str.16)
  store i32 2, ptr %6, align 4
  br label %42

22:                                               ; preds = %17
  %23 = load ptr, ptr %7, align 8
  %24 = call noundef ptr @_ZN7JVMFlag9find_flagEPKc(ptr noundef %23)
  store ptr %24, ptr %12, align 8
  %25 = load ptr, ptr %12, align 8
  %26 = icmp ne ptr %25, null
  br i1 %26, label %27, label %39

27:                                               ; preds = %22
  %28 = load ptr, ptr %12, align 8
  %29 = call noundef zeroext i1 @_ZNK7JVMFlag12is_writeableEv(ptr noundef nonnull align 8 dereferenceable(24) %28)
  br i1 %29, label %30, label %37

30:                                               ; preds = %27
  %31 = load ptr, ptr %9, align 8
  %32 = load ptr, ptr %12, align 8
  %33 = load ptr, ptr %8, align 8
  %34 = load i32, ptr %10, align 4
  %35 = load ptr, ptr %11, align 8
  %36 = call noundef i32 %31(ptr noundef %32, ptr noundef %33, i32 noundef %34, ptr noundef nonnull align 8 dereferenceable(88) %35)
  store i32 %36, ptr %6, align 4
  br label %42

37:                                               ; preds = %27
  %38 = load ptr, ptr %11, align 8
  call void (ptr, ptr, ...) @_ZN12FormatBufferILm80EE5printEPKcz(ptr noundef nonnull align 8 dereferenceable(88) %38, ptr noundef @.str.17)
  store i32 4, ptr %6, align 4
  br label %42

39:                                               ; preds = %22
  %40 = load ptr, ptr %11, align 8
  %41 = load ptr, ptr %7, align 8
  call void (ptr, ptr, ...) @_ZN12FormatBufferILm80EE5printEPKcz(ptr noundef nonnull align 8 dereferenceable(88) %40, ptr noundef @.str.18, ptr noundef %41)
  store i32 7, ptr %6, align 4
  br label %42

42:                                               ; preds = %39, %37, %30, %20, %15
  %43 = load i32, ptr %6, align 4
  ret i32 %43
}

; Function Attrs: mustprogress nounwind uwtable
define hidden noundef i32 @_ZN14WriteableFlags8set_flagEPKc6jvalue13JVMFlagOriginR12FormatBufferILm80EE(ptr noundef %0, i64 %1, i32 noundef %2, ptr noundef nonnull align 8 dereferenceable(88) %3) #1 align 2 {
  %5 = alloca %union.jvalue, align 8
  %6 = alloca ptr, align 8
  %7 = alloca i32, align 4
  %8 = alloca ptr, align 8
  %9 = getelementptr inbounds %union.jvalue, ptr %5, i32 0, i32 0
  store i64 %1, ptr %9, align 8
  store ptr %0, ptr %6, align 8
  store i32 %2, ptr %7, align 4
  store ptr %3, ptr %8, align 8
  %10 = load ptr, ptr %6, align 8
  %11 = load i32, ptr %7, align 4
  %12 = load ptr, ptr %8, align 8
  %13 = call noundef i32 @_ZN14WriteableFlags8set_flagEPKcPKvPFN7JVMFlag5ErrorEPS4_S3_13JVMFlagOriginR12FormatBufferILm80EEES7_SA_(ptr noundef %10, ptr noundef %5, ptr noundef @_ZN14WriteableFlags20set_flag_from_jvalueEP7JVMFlagPKv13JVMFlagOriginR12FormatBufferILm80EE, i32 noundef %11, ptr noundef nonnull align 8 dereferenceable(88) %12)
  ret i32 %13
}