; Function Attrs: mustprogress nounwind uwtable
define hidden noundef i32 @_ZN14WriteableFlags8set_flagEPKc6jvalue13JVMFlagOriginR12FormatBufferILm80EE(ptr noundef %0, i64 %1, i32 noundef %2, ptr noundef nonnull align 8 dereferenceable(88) %3) local_unnamed_addr #0 align 2 {
  %5 = alloca %union.jvalue, align 8
  store i64 %1, ptr %5, align 8
  %6 = icmp eq ptr %0, null
  br i1 %6, label %7, label %8

7:                                                ; preds = %4
  tail call void (ptr, ptr, ...) @_ZN12FormatBufferILm80EE5printEPKcz(ptr noundef nonnull align 8 dereferenceable(88) %3, ptr noundef nonnull @.str.15)
  br label %_ZN14WriteableFlags8set_flagEPKcPKvPFN7JVMFlag5ErrorEPS4_S3_13JVMFlagOriginR12FormatBufferILm80EEES7_SA_.exit

8:                                                ; preds = %4
  %9 = tail call i64 @strlen(ptr noundef nonnull dereferenceable(1) %0) #12
  %10 = tail call noundef ptr @_ZN7JVMFlag9find_flagEPKcmbb(ptr noundef nonnull %0, i64 noundef %9, i1 noundef zeroext false, i1 noundef zeroext false) #13
  %.not.i = icmp eq ptr %10, null
  br i1 %.not.i, label %18, label %11

11:                                               ; preds = %8
  %12 = getelementptr inbounds i8, ptr %10, i64 16
  %13 = load i32, ptr %12, align 8
  %14 = and i32 %13, 32
  %.not18.i = icmp eq i32 %14, 0
  br i1 %.not18.i, label %17, label %15

15:                                               ; preds = %11
  %16 = call noundef i32 @_ZN14WriteableFlags20set_flag_from_jvalueEP7JVMFlagPKv13JVMFlagOriginR12FormatBufferILm80EE(ptr noundef nonnull %10, ptr noundef nonnull %5, i32 noundef %2, ptr noundef nonnull align 8 dereferenceable(88) %3) #13
  br label %_ZN14WriteableFlags8set_flagEPKcPKvPFN7JVMFlag5ErrorEPS4_S3_13JVMFlagOriginR12FormatBufferILm80EEES7_SA_.exit

17:                                               ; preds = %11
  tail call void (ptr, ptr, ...) @_ZN12FormatBufferILm80EE5printEPKcz(ptr noundef nonnull align 8 dereferenceable(88) %3, ptr noundef nonnull @.str.17)
  br label %_ZN14WriteableFlags8set_flagEPKcPKvPFN7JVMFlag5ErrorEPS4_S3_13JVMFlagOriginR12FormatBufferILm80EEES7_SA_.exit

18:                                               ; preds = %8
  tail call void (ptr, ptr, ...) @_ZN12FormatBufferILm80EE5printEPKcz(ptr noundef nonnull align 8 dereferenceable(88) %3, ptr noundef nonnull @.str.18, ptr noundef nonnull %0)
  br label %_ZN14WriteableFlags8set_flagEPKcPKvPFN7JVMFlag5ErrorEPS4_S3_13JVMFlagOriginR12FormatBufferILm80EEES7_SA_.exit

_ZN14WriteableFlags8set_flagEPKcPKvPFN7JVMFlag5ErrorEPS4_S3_13JVMFlagOriginR12FormatBufferILm80EEES7_SA_.exit: ; preds = %7, %15, %17, %18
  %.0.i = phi i32 [ 1, %7 ], [ %16, %15 ], [ 4, %17 ], [ 7, %18 ]
  ret i32 %.0.i
}